; Function Attrs: nounwind uwtable
define internal void @be_filter_destruct(ptr noundef readonly captures(none) %0) #0 {
  %2 = getelementptr inbounds nuw i8, ptr %0, i64 552
  %3 = load ptr, ptr %2, align 8
  %.not = icmp eq ptr %3, null
  br i1 %.not, label %7, label %4

4:                                                ; preds = %1
  %5 = getelementptr inbounds nuw i8, ptr %0, i64 576
  %6 = load ptr, ptr %5, align 8
  tail call void %3(ptr noundef %6) #3
  br label %7

7:                                                ; preds = %4, %1
  %8 = getelementptr inbounds nuw i8, ptr %0, i64 528
  %9 = load ptr, ptr %8, align 8
  %.not12 = icmp eq ptr %9, null
  br i1 %.not12, label %14, label %10

10:                                               ; preds = %7
  %11 = getelementptr inbounds nuw i8, ptr %0, i64 256
  %12 = load ptr, ptr %11, align 8
  %13 = tail call i32 @evbuffer_remove_cb_entry(ptr noundef %12, ptr noundef nonnull %9) #3
  br label %14

14:                                               ; preds = %10, %7
  %15 = getelementptr inbounds nuw i8, ptr %0, i64 536
  %16 = load ptr, ptr %15, align 8
  %.not13 = icmp eq ptr %16, null
  br i1 %.not13, label %21, label %17

17:                                               ; preds = %14
  %18 = getelementptr inbounds nuw i8, ptr %0, i64 264
  %19 = load ptr, ptr %18, align 8
  %20 = tail call i32 @evbuffer_remove_cb_entry(ptr noundef %19, ptr noundef nonnull %16) #3
  br label %21

21:                                               ; preds = %17, %14
  ret void
}